; ModuleID = 'source-C-CXX/49/1541.c'
source_filename = "source-C-CXX/49/1541.c"
target datalayout = "e-m:e-p270:32:32-p271:32:32-p272:64:64-i64:64-f80:128-n8:16:32:64-S128"
target triple = "x86_64-pc-linux-gnu"

@.str = private unnamed_addr constant [3 x i8] c"%d\00", align 1
@.str.1 = private unnamed_addr constant [4 x i8] c"%d\0A\00", align 1

; Function Attrs: nofree nounwind sspstrong uwtable
define dso_local i32 @main() local_unnamed_addr #0 {
  %1 = alloca i32, align 4
  %2 = bitcast i32* %1 to i8*
  call void @llvm.lifetime.start.p0i8(i64 4, i8* nonnull %2) #3
  %3 = call i32 (i8*, ...) @__isoc99_scanf(i8* getelementptr inbounds ([3 x i8], [3 x i8]* @.str, i64 0, i64 0), i32* nonnull %1)
  br label %4

4:                                                ; preds = %0, %46
  %5 = phi i32 [ 1, %0 ], [ %47, %46 ]
  %6 = phi i32 [ undef, %0 ], [ %30, %46 ]
  %7 = icmp eq i32 %5, 1
  %8 = select i1 %7, i32 12, i32 %6
  %9 = icmp eq i32 %5, 2
  %10 = select i1 %9, i32 43, i32 %8
  %11 = icmp eq i32 %5, 3
  %12 = select i1 %11, i32 71, i32 %10
  %13 = icmp eq i32 %5, 4
  %14 = select i1 %13, i32 102, i32 %12
  %15 = icmp eq i32 %5, 5
  %16 = select i1 %15, i32 132, i32 %14
  %17 = icmp eq i32 %5, 6
  %18 = select i1 %17, i32 163, i32 %16
  %19 = icmp eq i32 %5, 7
  %20 = select i1 %19, i32 193, i32 %18
  %21 = icmp eq i32 %5, 8
  %22 = select i1 %21, i32 224, i32 %20
  %23 = icmp eq i32 %5, 9
  %24 = select i1 %23, i32 255, i32 %22
  %25 = icmp eq i32 %5, 10
  %26 = select i1 %25, i32 285, i32 %24
  %27 = icmp eq i32 %5, 11
  %28 = select i1 %27, i32 316, i32 %26
  %29 = icmp eq i32 %5, 12
  %30 = select i1 %29, i32 346, i32 %28
  %31 = srem i32 %30, 7
  %32 = load i32, i32* %1, align 4, !tbaa !5
  %33 = icmp slt i32 %32, 5
  br i1 %33, label %34, label %37

34:                                               ; preds = %4
  %35 = add nsw i32 %32, %31
  %36 = icmp eq i32 %35, 5
  br i1 %36, label %44, label %46

37:                                               ; preds = %4
  %38 = icmp eq i32 %32, 5
  br i1 %38, label %39, label %41

39:                                               ; preds = %37
  %40 = icmp eq i32 %31, 0
  br i1 %40, label %44, label %46

41:                                               ; preds = %37
  %42 = add nsw i32 %32, %31
  %43 = icmp eq i32 %42, 12
  br i1 %43, label %44, label %46

44:                                               ; preds = %41, %39, %34
  %45 = call i32 (i8*, ...) @printf(i8* nonnull dereferenceable(1) getelementptr inbounds ([4 x i8], [4 x i8]* @.str.1, i64 0, i64 0), i32 %5)
  br label %46

46:                                               ; preds = %44, %34, %41, %39
  %47 = add nuw nsw i32 %5, 1
  %48 = icmp eq i32 %47, 13
  br i1 %48, label %49, label %4, !llvm.loop !9

49:                                               ; preds = %46
  call void @llvm.lifetime.end.p0i8(i64 4, i8* nonnull %2) #3
  ret i32 0
}

; Function Attrs: argmemonly mustprogress nofree nosync nounwind willreturn
declare void @llvm.lifetime.start.p0i8(i64 immarg, i8* nocapture) #1

; Function Attrs: nofree nounwind
declare noundef i32 @__isoc99_scanf(i8* nocapture noundef readonly, ...) local_unnamed_addr #2

; Function Attrs: nofree nounwind
declare noundef i32 @printf(i8* nocapture noundef readonly, ...) local_unnamed_addr #2

; Function Attrs: argmemonly mustprogress nofree nosync nounwind willreturn
declare void @llvm.lifetime.end.p0i8(i64 immarg, i8* nocapture) #1


!llvm.module.flags = !{!0, !1, !2, !3}
!llvm.ident = !{!4}

!0 = !{i32 1, !"wchar_size", i32 4}
!1 = !{i32 7, !"PIC Level", i32 2}
!2 = !{i32 7, !"PIE Level", i32 2}
!3 = !{i32 7, !"uwtable", i32 1}
!4 = !{!"clang version 13.0.0"}
!5 = !{!6, !6, i64 0}
!6 = !{!"int", !7, i64 0}
!7 = !{!"omnipotent char", !8, i64 0}
!8 = !{!"Simple C/C++ TBAA"}
!9 = distinct !{!9, !10}
!10 = !{!"llvm.loop.mustprogress"}
